; Function Attrs: mustprogress nofree norecurse nosync nounwind willreturn memory(argmem: readwrite) uwtable
define void @_ZN3zmq14mailbox_safe_t15clear_signalersEv(ptr noundef nonnull align 8 captures(none) dereferenceable(200) %0) local_unnamed_addr #11 align 2 personality ptr @__gxx_personality_v0 {
  %2 = getelementptr inbounds nuw i8, ptr %0, i64 176
  %3 = load ptr, ptr %2, align 8, !tbaa !54
  %4 = getelementptr inbounds nuw i8, ptr %0, i64 184
  %5 = load ptr, ptr %4, align 8, !tbaa !69
  %.not.i.i = icmp eq ptr %5, %3
  br i1 %.not.i.i, label %_ZNSt6vectorIPN3zmq10signaler_tESaIS2_EE5clearEv.exit, label %6

6:                                                ; preds = %1
  store ptr %3, ptr %4, align 8, !tbaa !69
  br label %_ZNSt6vectorIPN3zmq10signaler_tESaIS2_EE5clearEv.exit

_ZNSt6vectorIPN3zmq10signaler_tESaIS2_EE5clearEv.exit: ; preds = %1, %6
  ret void
}